target datalayout = "e-m:e-p270:32:32-p271:32:32-p272:64:64-i64:64-i128:128-f80:128-n8:16:32:64-S128"
target triple = "x86_64-pc-linux-gnu"

%struct.ArrayType = type { i32, i32, i32, i32 }

@.str.1 = private unnamed_addr constant [10 x i8] c"funcapi.c\00", align 1
@.str.13 = private unnamed_addr constant [36 x i8] c"cache lookup failed for function %u\00", align 1
@__func__.get_func_result_name = private unnamed_addr constant [21 x i8] c"get_func_result_name\00", align 1
@.str.14 = private unnamed_addr constant [57 x i8] c"proargmodes is not a 1-D char array or it contains nulls\00", align 1
@.str.15 = private unnamed_addr constant [70 x i8] c"proargnames is not a 1-D text array of length %d or it contains nulls\00", align 1

; Function Attrs: inlinehint nounwind uwtable
define internal ptr @DatumGetPointer(i64 noundef %0) #4 {
  %2 = alloca i64, align 8
  store i64 %0, ptr %2, align 8
  %3 = load i64, ptr %2, align 8
  %4 = inttoptr i64 %3 to ptr
  ret ptr %4
}

; Function Attrs: inlinehint nounwind uwtable
define internal i64 @ObjectIdGetDatum(i32 noundef %0) #4 {
  %2 = alloca i32, align 4
  store i32 %0, ptr %2, align 4
  %3 = load i32, ptr %2, align 4
  %4 = zext i32 %3 to i64
  ret i64 %4
}

; Function Attrs: nounwind uwtable
define dso_local ptr @get_func_result_name(i32 noundef %0) #0 {
  %2 = alloca i32, align 4
  %3 = alloca ptr, align 8
  %4 = alloca ptr, align 8
  %5 = alloca i64, align 8
  %6 = alloca i64, align 8
  %7 = alloca ptr, align 8
  %8 = alloca i32, align 4
  %9 = alloca ptr, align 8
  %10 = alloca ptr, align 8
  %11 = alloca i32, align 4
  %12 = alloca i32, align 4
  %13 = alloca i32, align 4
  store i32 %0, ptr %2, align 4
  call void @llvm.lifetime.start.p0(i64 8, ptr %3) #7
  call void @llvm.lifetime.start.p0(i64 8, ptr %4) #7
  call void @llvm.lifetime.start.p0(i64 8, ptr %5) #7
  call void @llvm.lifetime.start.p0(i64 8, ptr %6) #7
  call void @llvm.lifetime.start.p0(i64 8, ptr %7) #7
  call void @llvm.lifetime.start.p0(i64 4, ptr %8) #7
  call void @llvm.lifetime.start.p0(i64 8, ptr %9) #7
  call void @llvm.lifetime.start.p0(i64 8, ptr %10) #7
  call void @llvm.lifetime.start.p0(i64 4, ptr %11) #7
  call void @llvm.lifetime.start.p0(i64 4, ptr %12) #7
  call void @llvm.lifetime.start.p0(i64 4, ptr %13) #7
  %14 = load i32, ptr %2, align 4
  %15 = call i64 @ObjectIdGetDatum(i32 noundef %14)
  %16 = call ptr @SearchSysCache1(i32 noundef 47, i64 noundef %15)
  store ptr %16, ptr %4, align 8
  %17 = load ptr, ptr %4, align 8
  %18 = icmp ne ptr %17, null
  br i1 %18, label %31, label %19

19:                                               ; preds = %1
  br label %20

20:                                               ; preds = %19
  br i1 true, label %21, label %23

21:                                               ; preds = %20
  %22 = call zeroext i1 @errstart_cold(i32 noundef 21, ptr noundef null) #8
  br i1 %22, label %25, label %28

23:                                               ; preds = %20
  %24 = call zeroext i1 @errstart(i32 noundef 21, ptr noundef null)
  br i1 %24, label %25, label %28

25:                                               ; preds = %23, %21
  %26 = load i32, ptr %2, align 4
  %27 = call i32 (ptr, ...) @errmsg_internal(ptr noundef @.str.13, i32 noundef %26)
  call void @errfinish(ptr noundef @.str.1, i32 noundef 1624, ptr noundef @__func__.get_func_result_name)
  br label %28

28:                                               ; preds = %25, %23, %21
  unreachable

29:                                               ; No predecessors!
  br label %30

30:                                               ; preds = %29
  br label %31

31:                                               ; preds = %30, %1
  %32 = load ptr, ptr %4, align 8
  %33 = call zeroext i1 @heap_attisnull(ptr noundef %32, i32 noundef 22, ptr noundef null)
  br i1 %33, label %37, label %34

34:                                               ; preds = %31
  %35 = load ptr, ptr %4, align 8
  %36 = call zeroext i1 @heap_attisnull(ptr noundef %35, i32 noundef 23, ptr noundef null)
  br i1 %36, label %37, label %38

37:                                               ; preds = %34, %31
  store ptr null, ptr %3, align 8
  br label %187

38:                                               ; preds = %34
  %39 = load ptr, ptr %4, align 8
  %40 = call i64 @SysCacheGetAttrNotNull(i32 noundef 47, ptr noundef %39, i16 noundef signext 22)
  store i64 %40, ptr %5, align 8
  %41 = load ptr, ptr %4, align 8
  %42 = call i64 @SysCacheGetAttrNotNull(i32 noundef 47, ptr noundef %41, i16 noundef signext 23)
  store i64 %42, ptr %6, align 8
  %43 = load i64, ptr %5, align 8
  %44 = call ptr @DatumGetPointer(i64 noundef %43)
  %45 = call ptr @pg_detoast_datum(ptr noundef %44)
  store ptr %45, ptr %7, align 8
  %46 = load ptr, ptr %7, align 8
  %47 = getelementptr inbounds nuw i8, ptr %46, i64 16
  %48 = getelementptr inbounds i32, ptr %47, i64 0
  %49 = load i32, ptr %48, align 4
  store i32 %49, ptr %8, align 4
  %50 = load ptr, ptr %7, align 8
  %51 = getelementptr inbounds nuw %struct.ArrayType, ptr %50, i32 0, i32 1
  %52 = load i32, ptr %51, align 4
  %53 = icmp ne i32 %52, 1
  br i1 %53, label %67, label %54

54:                                               ; preds = %38
  %55 = load i32, ptr %8, align 4
  %56 = icmp slt i32 %55, 0
  br i1 %56, label %67, label %57

57:                                               ; preds = %54
  %58 = load ptr, ptr %7, align 8
  %59 = getelementptr inbounds nuw %struct.ArrayType, ptr %58, i32 0, i32 2
  %60 = load i32, ptr %59, align 4
  %61 = icmp ne i32 %60, 0
  br i1 %61, label %67, label %62

62:                                               ; preds = %57
  %63 = load ptr, ptr %7, align 8
  %64 = getelementptr inbounds nuw %struct.ArrayType, ptr %63, i32 0, i32 3
  %65 = load i32, ptr %64, align 4
  %66 = icmp ne i32 %65, 18
  br i1 %66, label %67, label %78

67:                                               ; preds = %62, %57, %54, %38
  br label %68

68:                                               ; preds = %67
  br i1 true, label %69, label %71

69:                                               ; preds = %68
  %70 = call zeroext i1 @errstart_cold(i32 noundef 21, ptr noundef null) #8
  br i1 %70, label %73, label %75

71:                                               ; preds = %68
  %72 = call zeroext i1 @errstart(i32 noundef 21, ptr noundef null)
  br i1 %72, label %73, label %75

73:                                               ; preds = %71, %69
  %74 = call i32 (ptr, ...) @errmsg_internal(ptr noundef @.str.14)
  call void @errfinish(ptr noundef @.str.1, i32 noundef 1650, ptr noundef @__func__.get_func_result_name)
  br label %75

75:                                               ; preds = %73, %71, %69
  unreachable

76:                                               ; No predecessors!
  br label %77

77:                                               ; preds = %76
  br label %78

78:                                               ; preds = %77, %62
  %79 = load ptr, ptr %7, align 8
  %80 = load ptr, ptr %7, align 8
  %81 = getelementptr inbounds nuw %struct.ArrayType, ptr %80, i32 0, i32 2
  %82 = load i32, ptr %81, align 4
  %83 = icmp ne i32 %82, 0
  br i1 %83, label %84, label %89

84:                                               ; preds = %78
  %85 = load ptr, ptr %7, align 8
  %86 = getelementptr inbounds nuw %struct.ArrayType, ptr %85, i32 0, i32 2
  %87 = load i32, ptr %86, align 4
  %88 = sext i32 %87 to i64
  br label %98

89:                                               ; preds = %78
  %90 = load ptr, ptr %7, align 8
  %91 = getelementptr inbounds nuw %struct.ArrayType, ptr %90, i32 0, i32 1
  %92 = load i32, ptr %91, align 4
  %93 = sext i32 %92 to i64
  %94 = mul i64 8, %93
  %95 = add i64 16, %94
  %96 = add i64 %95, 7
  %97 = and i64 %96, -8
  br label %98

98:                                               ; preds = %89, %84
  %99 = phi i64 [ %88, %84 ], [ %97, %89 ]
  %100 = getelementptr inbounds nuw i8, ptr %79, i64 %99
  store ptr %100, ptr %9, align 8
  %101 = load i64, ptr %6, align 8
  %102 = call ptr @DatumGetPointer(i64 noundef %101)
  %103 = call ptr @pg_detoast_datum(ptr noundef %102)
  store ptr %103, ptr %7, align 8
  %104 = load ptr, ptr %7, align 8
  %105 = getelementptr inbounds nuw %struct.ArrayType, ptr %104, i32 0, i32 1
  %106 = load i32, ptr %105, align 4
  %107 = icmp ne i32 %106, 1
  br i1 %107, label %125, label %108

108:                                              ; preds = %98
  %109 = load ptr, ptr %7, align 8
  %110 = getelementptr inbounds nuw i8, ptr %109, i64 16
  %111 = getelementptr inbounds i32, ptr %110, i64 0
  %112 = load i32, ptr %111, align 4
  %113 = load i32, ptr %8, align 4
  %114 = icmp ne i32 %112, %113
  br i1 %114, label %125, label %115

115:                                              ; preds = %108
  %116 = load ptr, ptr %7, align 8
  %117 = getelementptr inbounds nuw %struct.ArrayType, ptr %116, i32 0, i32 2
  %118 = load i32, ptr %117, align 4
  %119 = icmp ne i32 %118, 0
  br i1 %119, label %125, label %120

120:                                              ; preds = %115
  %121 = load ptr, ptr %7, align 8
  %122 = getelementptr inbounds nuw %struct.ArrayType, ptr %121, i32 0, i32 3
  %123 = load i32, ptr %122, align 4
  %124 = icmp ne i32 %123, 25
  br i1 %124, label %125, label %137

125:                                              ; preds = %120, %115, %108, %98
  br label %126

126:                                              ; preds = %125
  br i1 true, label %127, label %129

127:                                              ; preds = %126
  %128 = call zeroext i1 @errstart_cold(i32 noundef 21, ptr noundef null) #8
  br i1 %128, label %131, label %134

129:                                              ; preds = %126
  %130 = call zeroext i1 @errstart(i32 noundef 21, ptr noundef null)
  br i1 %130, label %131, label %134

131:                                              ; preds = %129, %127
  %132 = load i32, ptr %8, align 4
  %133 = call i32 (ptr, ...) @errmsg_internal(ptr noundef @.str.15, i32 noundef %132)
  call void @errfinish(ptr noundef @.str.1, i32 noundef 1658, ptr noundef @__func__.get_func_result_name)
  br label %134

134:                                              ; preds = %131, %129, %127
  unreachable

135:                                              ; No predecessors!
  br label %136

136:                                              ; preds = %135
  br label %137

137:                                              ; preds = %136, %120
  %138 = load ptr, ptr %7, align 8
  call void @deconstruct_array_builtin(ptr noundef %138, i32 noundef 25, ptr noundef %10, ptr noundef null, ptr noundef %12)
  store ptr null, ptr %3, align 8
  store i32 0, ptr %11, align 4
  store i32 0, ptr %13, align 4
  br label %139

139:                                              ; preds = %183, %137
  %140 = load i32, ptr %13, align 4
  %141 = load i32, ptr %8, align 4
  %142 = icmp slt i32 %140, %141
  br i1 %142, label %143, label %186

143:                                              ; preds = %139
  %144 = load ptr, ptr %9, align 8
  %145 = load i32, ptr %13, align 4
  %146 = sext i32 %145 to i64
  %147 = getelementptr inbounds i8, ptr %144, i64 %146
  %148 = load i8, ptr %147, align 1
  %149 = sext i8 %148 to i32
  %150 = icmp eq i32 %149, 105
  br i1 %150, label %159, label %151

151:                                              ; preds = %143
  %152 = load ptr, ptr %9, align 8
  %153 = load i32, ptr %13, align 4
  %154 = sext i32 %153 to i64
  %155 = getelementptr inbounds i8, ptr %152, i64 %154
  %156 = load i8, ptr %155, align 1
  %157 = sext i8 %156 to i32
  %158 = icmp eq i32 %157, 118
  br i1 %158, label %159, label %160

159:                                              ; preds = %151, %143
  br label %183

160:                                              ; preds = %151
  %161 = load i32, ptr %11, align 4
  %162 = add i32 %161, 1
  store i32 %162, ptr %11, align 4
  %163 = icmp sgt i32 %162, 1
  br i1 %163, label %164, label %165

164:                                              ; preds = %160
  store ptr null, ptr %3, align 8
  br label %186

165:                                              ; preds = %160
  %166 = load ptr, ptr %10, align 8
  %167 = load i32, ptr %13, align 4
  %168 = sext i32 %167 to i64
  %169 = getelementptr inbounds i64, ptr %166, i64 %168
  %170 = load i64, ptr %169, align 8
  %171 = call ptr @DatumGetPointer(i64 noundef %170)
  %172 = call ptr @text_to_cstring(ptr noundef %171)
  store ptr %172, ptr %3, align 8
  %173 = load ptr, ptr %3, align 8
  %174 = icmp eq ptr %173, null
  br i1 %174, label %181, label %175

175:                                              ; preds = %165
  %176 = load ptr, ptr %3, align 8
  %177 = getelementptr inbounds i8, ptr %176, i64 0
  %178 = load i8, ptr %177, align 1
  %179 = sext i8 %178 to i32
  %180 = icmp eq i32 %179, 0
  br i1 %180, label %181, label %182

181:                                              ; preds = %175, %165
  store ptr null, ptr %3, align 8
  br label %186

182:                                              ; preds = %175
  br label %183

183:                                              ; preds = %182, %159
  %184 = load i32, ptr %13, align 4
  %185 = add i32 %184, 1
  store i32 %185, ptr %13, align 4
  br label %139, !llvm.loop !12

186:                                              ; preds = %181, %164, %139
  br label %187

187:                                              ; preds = %186, %37
  %188 = load ptr, ptr %4, align 8
  call void @ReleaseSysCache(ptr noundef %188)
  %189 = load ptr, ptr %3, align 8
  call void @llvm.lifetime.end.p0(i64 4, ptr %13) #7
  call void @llvm.lifetime.end.p0(i64 4, ptr %12) #7
  call void @llvm.lifetime.end.p0(i64 4, ptr %11) #7
  call void @llvm.lifetime.end.p0(i64 8, ptr %10) #7
  call void @llvm.lifetime.end.p0(i64 8, ptr %9) #7
  call void @llvm.lifetime.end.p0(i64 4, ptr %8) #7
  call void @llvm.lifetime.end.p0(i64 8, ptr %7) #7
  call void @llvm.lifetime.end.p0(i64 8, ptr %6) #7
  call void @llvm.lifetime.end.p0(i64 8, ptr %5) #7
  call void @llvm.lifetime.end.p0(i64 8, ptr %4) #7
  call void @llvm.lifetime.end.p0(i64 8, ptr %3) #7
  ret ptr %189
}