; Function Attrs: nounwind uwtable
define dso_local ptr @get_func_result_name(i32 noundef %0) local_unnamed_addr #0 {
  %2 = alloca ptr, align 8
  %3 = alloca i32, align 4
  call void @llvm.lifetime.start.p0(i64 8, ptr nonnull %2) #8
  call void @llvm.lifetime.start.p0(i64 4, ptr nonnull %3) #8
  %4 = zext i32 %0 to i64
  %5 = tail call ptr @SearchSysCache1(i32 noundef 47, i64 noundef %4) #8
  %.not = icmp eq ptr %5, null
  br i1 %.not, label %6, label %9

6:                                                ; preds = %1
  %7 = tail call zeroext i1 @errstart_cold(i32 noundef 21, ptr noundef null) #9
  tail call void @llvm.assume(i1 %7)
  %8 = tail call i32 (ptr, ...) @errmsg_internal(ptr noundef nonnull @.str.13, i32 noundef %0) #8
  tail call void @errfinish(ptr noundef nonnull @.str.1, i32 noundef 1624, ptr noundef nonnull @__func__.get_func_result_name) #8
  unreachable

9:                                                ; preds = %1
  %10 = tail call zeroext i1 @heap_attisnull(ptr noundef nonnull %5, i32 noundef 22, ptr noundef null) #8
  br i1 %10, label %.loopexit, label %11

11:                                               ; preds = %9
  %12 = tail call zeroext i1 @heap_attisnull(ptr noundef nonnull %5, i32 noundef 23, ptr noundef null) #8
  br i1 %12, label %.loopexit, label %13

13:                                               ; preds = %11
  %14 = tail call i64 @SysCacheGetAttrNotNull(i32 noundef 47, ptr noundef nonnull %5, i16 noundef signext 22) #8
  %15 = tail call i64 @SysCacheGetAttrNotNull(i32 noundef 47, ptr noundef nonnull %5, i16 noundef signext 23) #8
  %16 = inttoptr i64 %14 to ptr
  %17 = tail call ptr @pg_detoast_datum(ptr noundef %16) #8
  %18 = getelementptr inbounds nuw i8, ptr %17, i64 16
  %19 = load i32, ptr %18, align 4
  %20 = getelementptr inbounds nuw i8, ptr %17, i64 4
  %21 = load i32, ptr %20, align 4
  %22 = icmp ne i32 %21, 1
  %23 = icmp slt i32 %19, 0
  %or.cond = select i1 %22, i1 true, i1 %23
  br i1 %or.cond, label %30, label %24

24:                                               ; preds = %13
  %25 = getelementptr inbounds nuw i8, ptr %17, i64 8
  %26 = load i32, ptr %25, align 4
  %.not48 = icmp eq i32 %26, 0
  br i1 %.not48, label %27, label %30

27:                                               ; preds = %24
  %28 = getelementptr inbounds nuw i8, ptr %17, i64 12
  %29 = load i32, ptr %28, align 4
  %.not49 = icmp eq i32 %29, 18
  br i1 %.not49, label %33, label %30

30:                                               ; preds = %27, %24, %13
  %31 = tail call zeroext i1 @errstart_cold(i32 noundef 21, ptr noundef null) #9
  tail call void @llvm.assume(i1 %31)
  %32 = tail call i32 (ptr, ...) @errmsg_internal(ptr noundef nonnull @.str.14) #8
  tail call void @errfinish(ptr noundef nonnull @.str.1, i32 noundef 1650, ptr noundef nonnull @__func__.get_func_result_name) #8
  unreachable

33:                                               ; preds = %27
  %34 = getelementptr inbounds nuw i8, ptr %17, i64 24
  %35 = inttoptr i64 %15 to ptr
  %36 = tail call ptr @pg_detoast_datum(ptr noundef %35) #8
  %37 = getelementptr inbounds nuw i8, ptr %36, i64 4
  %38 = load i32, ptr %37, align 4
  %.not50 = icmp eq i32 %38, 1
  br i1 %.not50, label %39, label %48

39:                                               ; preds = %33
  %40 = getelementptr inbounds nuw i8, ptr %36, i64 16
  %41 = load i32, ptr %40, align 4
  %.not51 = icmp eq i32 %41, %19
  br i1 %.not51, label %42, label %48

42:                                               ; preds = %39
  %43 = getelementptr inbounds nuw i8, ptr %36, i64 8
  %44 = load i32, ptr %43, align 4
  %.not52 = icmp eq i32 %44, 0
  br i1 %.not52, label %45, label %48

45:                                               ; preds = %42
  %46 = getelementptr inbounds nuw i8, ptr %36, i64 12
  %47 = load i32, ptr %46, align 4
  %.not53 = icmp eq i32 %47, 25
  br i1 %.not53, label %51, label %48

48:                                               ; preds = %45, %42, %39, %33
  %49 = tail call zeroext i1 @errstart_cold(i32 noundef 21, ptr noundef null) #9
  tail call void @llvm.assume(i1 %49)
  %50 = tail call i32 (ptr, ...) @errmsg_internal(ptr noundef nonnull @.str.15, i32 noundef %19) #8
  tail call void @errfinish(ptr noundef nonnull @.str.1, i32 noundef 1658, ptr noundef nonnull @__func__.get_func_result_name) #8
  unreachable

51:                                               ; preds = %45
  call void @deconstruct_array_builtin(ptr noundef nonnull %36, i32 noundef 25, ptr noundef nonnull %2, ptr noundef null, ptr noundef nonnull %3) #8
  %.not65 = icmp eq i32 %19, 0
  br i1 %.not65, label %.loopexit, label %.lr.ph.preheader

.lr.ph.preheader:                                 ; preds = %51
  %wide.trip.count = zext nneg i32 %19 to i64
  br label %.lr.ph

.lr.ph:                                           ; preds = %.lr.ph.preheader, %65
  %indvars.iv = phi i64 [ 0, %.lr.ph.preheader ], [ %indvars.iv.next, %65 ]
  %.03855 = phi i32 [ 0, %.lr.ph.preheader ], [ %.1, %65 ]
  %.14054 = phi ptr [ null, %.lr.ph.preheader ], [ %.2, %65 ]
  %52 = getelementptr inbounds nuw i8, ptr %34, i64 %indvars.iv
  %53 = load i8, ptr %52, align 1
  switch i8 %53, label %54 [
    i8 105, label %65
    i8 118, label %65
  ]

54:                                               ; preds = %.lr.ph
  %.not64 = icmp eq i32 %.03855, 0
  br i1 %.not64, label %55, label %.loopexit

55:                                               ; preds = %54
  %56 = load ptr, ptr %2, align 8
  %57 = getelementptr inbounds nuw i64, ptr %56, i64 %indvars.iv
  %58 = load i64, ptr %57, align 8
  %59 = inttoptr i64 %58 to ptr
  %60 = call ptr @text_to_cstring(ptr noundef %59) #8
  %61 = icmp eq ptr %60, null
  br i1 %61, label %.loopexit, label %62

62:                                               ; preds = %55
  %63 = load i8, ptr %60, align 1
  %64 = icmp eq i8 %63, 0
  br i1 %64, label %.loopexit, label %65

65:                                               ; preds = %.lr.ph, %.lr.ph, %62
  %.2 = phi ptr [ %.14054, %.lr.ph ], [ %60, %62 ], [ %.14054, %.lr.ph ]
  %.1 = phi i32 [ %.03855, %.lr.ph ], [ 1, %62 ], [ %.03855, %.lr.ph ]
  %indvars.iv.next = add nuw nsw i64 %indvars.iv, 1
  %exitcond.not = icmp eq i64 %indvars.iv.next, %wide.trip.count
  br i1 %exitcond.not, label %.loopexit, label %.lr.ph, !llvm.loop !15

.loopexit:                                        ; preds = %65, %54, %62, %55, %51, %9, %11
  %.039 = phi ptr [ null, %11 ], [ null, %9 ], [ null, %51 ], [ %.2, %65 ], [ null, %54 ], [ null, %62 ], [ null, %55 ]
  call void @ReleaseSysCache(ptr noundef nonnull %5) #8
  call void @llvm.lifetime.end.p0(i64 4, ptr nonnull %3) #8
  call void @llvm.lifetime.end.p0(i64 8, ptr nonnull %2) #8
  ret ptr %.039
}